(lp1
(lp2
S'american'
p3
aS'estate'
p4
aS'name'
p5
aS'agents'
p6
aS'study'
p7
aS'record'
p8
aS'id'
p9
aS'disease'
p10
aS'end'
p11
aS'party'
p12
aS'middle'
p13
aS'class'
p14
aS'people'
p15
aS'heart'
p16
aS'life'
p17
aS'summary'
p18
aS'children'
p19
aS'work'
p20
aS'studies'
p21
aS'women'
p22
aa(lp23
S'dr'
p24
aS'john'
p25
aS'mr'
p26
aS'david'
p27
aS'professor'
p28
aS'peter'
p29
aS'contact'
p30
aS'paul'
p31
aS'richard'
p32
aS'sir'
p33
aS'michael'
p34
aS'james'
p35
aS'mrs'
p36
aS'william'
p37
aS'j'
aS'thomas'
p38
aS'robert'
p39
aS'george'
p40
aS'martin'
p41
aS'mark'
p42
aa(lp43
S'service'
p44
aS'health'
p45
aS'development'
p46
aS'centre'
p47
aS'council'
p48
aS'services'
p49
aS'community'
p50
aS'west'
p51
aS'management'
p52
aS'information'
p53
aS'national'
p54
aS'research'
p55
aS'business'
p56
aS'care'
p57
aS'south'
p58
aS'training'
p59
aS'north'
p60
aS'east'
p61
aS'programme'
p62
aS'support'
p63
aa(lp64
S'/'
aS'//'
p65
aS'1'
aS'2'
aS'3'
aS'0'
aS'c'
aS'4'
aS'b'
aS'd'
aS'level'
p66
aS'5'
aS'part'
p67
aS'isbn'
p68
aS'i'
aS'http'
p69
aS'year'
p70
aS'e'
aS'table'
p71
aS'n'
aa(lp72
S'world'
p73
aS'o'
aS'club'
p74
aS'hall'
p75
aS'football'
p76
aS'cup'
p77
aS'n'
ag30
aS'england'
p78
aS'league'
p79
aS'school'
p80
aS'town'
p81
aS'team'
p82
aS'castle'
p83
aS'scott'
p84
ag42
aS'park'
p85
aS'gold'
p86
aS'kevin'
p87
ag29
aa(lp88
S'm'
aS'x'
aS'g'
aS'mm'
p89
aS'code'
p90
aS'2'
aS'4'
aS'order'
p91
aS'1'
aS'v'
aS'northern'
p92
aS'3'
aS'cm'
p93
aS'version'
p94
aS'10'
p95
aS'ireland'
p96
aS'k'
aS'500'
p97
aS'size'
p98
aS'200'
p99
aa(lp100
S'data'
p101
aS'system'
p102
aS'systems'
p103
aS'software'
p104
aS'computer'
p105
aS'technology'
p106
ag53
aS'control'
p107
aS'radio'
p108
aS'design'
p109
aS'production'
p110
ag52
aS'use'
p111
aS'test'
p112
aS'search'
p113
aS'process'
p114
aS'access'
p115
aS'solutions'
p116
aS'equipment'
p117
aS'performance'
p118
aa(lp119
S'%'
aS'20'
p120
aS'2'
ag65
aS'p'
aS'100'
p121
aS'years'
p122
aS'c'
aS's'
aS'e'
aS'r'
aS'3'
ag95
aS't'
aS'k'
aS'50'
p123
aS'000'
p124
aS'b'
aS'd'
aS'40'
p125
aa(lp126
S'action'
p127
aS'energy'
p128
aS'plan'
p129
aS'uk'
p130
aS'course'
p131
aS'land'
p132
aS'minister'
p133
aS'british'
p134
aS'plans'
p135
aS'need'
p136
aS'government'
p137
aS'golf'
p138
ag74
aS'advice'
p139
aS'channel'
p140
aS'association'
p141
ag20
aS'plant'
p142
ag15
aS'fees'
p143
aa(lp144
S'2006'
p145
aS'2005'
p146
aS'2004'
p147
aS'may'
p148
aS'2003'
p149
aS'june'
p150
aS'july'
p151
aS'march'
p152
aS'12'
p153
aS'2002'
p154
aS'st'
p155
aS'15'
p156
aS'21'
p157
aS'11'
p158
aS'2000'
p159
aS'april'
p160
aS'13'
p161
aS'14'
p162
aS'16'
p163
aS'2001'
p164
aa(lp165
S'group'
p166
ag73
aS'time'
p167
aS'form'
p168
aS'online'
p169
aS'free'
p170
aS'game'
p171
aS'times'
p172
aS'war'
p173
aS'book'
p174
aS'car'
p175
aS'van'
p176
aS'music'
p177
aS'day'
p178
aS'travel'
p179
ag130
aS'mail'
p180
ag56
aS'games'
p181
aS'network'
p182
aa(lp183
S'new'
p184
aS'press'
p185
aS'series'
p186
aS'issue'
p187
ag65
aS'library'
p188
aS'union'
p189
aS'release'
p190
aS'news'
p191
aS'trade'
p192
aS'date'
p193
aS'tv'
p194
aS'york'
p195
aS'old'
p196
ag69
aS'jack'
p197
aS'film'
p198
aS'bbc'
p199
aS'story'
p200
aS'university'
p201
aa(lp202
S'list'
p203
ag80
aS'church'
p204
ag70
ag20
aS'report'
p205
aS'project'
p206
ag201
aS'college'
p207
aS'members'
p208
ag166
aS'member'
p209
aS'schools'
p210
aS'students'
p211
aS'history'
p212
aS'general'
p213
aS'hour'
p214
aS'nature'
p215
aS'scheme'
p216
aS'experience'
p217
aa(lp218
S'water'
p219
ag102
ag111
aS'card'
p220
aS'room'
p221
aS'credit'
p222
aS'power'
p223
aS'video'
p224
ag107
aS'quality'
p225
aS'oil'
p226
aS'ground'
p227
aS'display'
p228
aS'tax'
p229
aS'self'
p230
aS'area'
p231
ag103
aS'link'
p232
aS'farm'
p233
aS'cards'
p234
aa(lp235
S'air'
p236
aS'art'
p237
aS'royal'
p238
aS'theatre'
p239
aS'cancer'
p240
ag177
aS'dance'
p241
aS'gallery'
p242
aS'force'
p243
aS'show'
p244
ag80
ag198
aS'wall'
p245
aS'glass'
p246
aS'right'
p247
aS'type'
p248
aS'baby'
p249
aS'tree'
p250
aS'front'
p251
aS'summer'
p252
aa(lp253
g55
aS'international'
p254
ag166
ag62
aS'case'
p255
ag63
ag206
aS'law'
p256
aS'executive'
p257
aS'survey'
p258
ag213
ag21
aS'act'
p259
ag52
aS'education'
p260
aS'student'
p261
aS'rights'
p262
aS'policy'
p263
ag53
aS'officer'
p264
aa(lp265
S'1'
aS'2'
aS'4'
aS'3'
aS'8'
aS'5'
aS'6'
aS'7'
aS'road'
p266
aS'9'
aS'street'
p267
aS'email'
p268
aS'tel'
p269
aS'020'
p270
aS'london'
p271
aS'house'
p272
aS'telephone'
p273
aS'fax'
p274
aS'united'
p275
aS'v'
aa(lp276
S'|'
aS'ltd'
p277
aS'pm'
p278
ag271
aS'page'
p279
aS'home'
p280
ag130
aS'links'
p281
ag191
aS'hotel'
p282
aS'company'
p283
ag272
ag201
aS'comments'
p284
ag49
aS'city'
p285
aS'manchester'
p286
aS'office'
p287
aS'11.00'
p288
aS'index'
p289
aa(lp290
S'site'
p291
aS'web'
p292
ag109
aS'windows'
p293
aS'server'
p294
aS'language'
p295
aS'user'
p296
aS'pages'
p297
aS'sites'
p298
aS'english'
p299
aS'microsoft'
p300
ag17
aS'product'
p301
aS'~'
aS'skills'
p302
ag101
aS'change'
p303
aS'directory'
p304
aS'task'
p305
ag104
aa(lp306
S'green'
p307
aS'paper'
p308
aS'court'
p309
aS'document'
p310
aS'format'
p311
aS'black'
p312
aS'red'
p313
aS'word'
p314
aS'white'
p315
ag15
aS'blue'
p316
ag244
ag178
aS'files'
p317
aS'download'
p318
ag174
aS'pdf'
p319
aS'high'
p320
aS'big'
p321
aS'line'
p322
aa.